; Function Attrs: mustprogress uwtable
define void @_ZN6google8protobuf7strings10ByteSource6CopyToEPNS1_8ByteSinkEm(ptr noundef nonnull align 8 dereferenceable(8) %0, ptr noundef %1, i64 noundef %2) unnamed_addr #3 align 2 personality ptr @__gxx_personality_v0 {
  %4 = alloca %"class.google::protobuf::internal::LogMessage", align 8
  %5 = alloca %"class.google::protobuf::internal::LogFinisher", align 1
  %.not11 = icmp eq i64 %2, 0
  br i1 %.not11, label %.loopexit, label %.lr.ph

.lr.ph:                                           ; preds = %3, %18
  %storemerge12 = phi i64 [ %26, %18 ], [ %2, %3 ]
  %6 = load ptr, ptr %0, align 8
  %7 = getelementptr inbounds i8, ptr %6, i64 24
  %8 = load ptr, ptr %7, align 8
  %9 = tail call { ptr, i64 } %8(ptr noundef nonnull align 8 dereferenceable(8) %0)
  %10 = extractvalue { ptr, i64 } %9, 1
  %11 = icmp eq i64 %10, 0
  br i1 %11, label %12, label %18

12:                                               ; preds = %.lr.ph
  call void @_ZN6google8protobuf8internal10LogMessageC1ENS0_8LogLevelEPKci(ptr noundef nonnull align 8 dereferenceable(56) %4, i32 noundef 2, ptr noundef nonnull @.str, i32 noundef 46)
  %13 = invoke noundef nonnull align 8 dereferenceable(56) ptr @_ZN6google8protobuf8internal10LogMessagelsEPKc(ptr noundef nonnull align 8 dereferenceable(56) %4, ptr noundef nonnull @.str.1)
          to label %14 unwind label %16

14:                                               ; preds = %12
  invoke void @_ZN6google8protobuf8internal11LogFinisheraSERNS1_10LogMessageE(ptr noundef nonnull align 1 dereferenceable(1) %5, ptr noundef nonnull align 8 dereferenceable(56) %13)
          to label %15 unwind label %16

15:                                               ; preds = %14
  call void @_ZN6google8protobuf8internal10LogMessageD1Ev(ptr noundef nonnull align 8 dereferenceable(56) %4) #17
  br label %.loopexit

16:                                               ; preds = %14, %12
  %17 = landingpad { ptr, i32 }
          cleanup
  call void @_ZN6google8protobuf8internal10LogMessageD1Ev(ptr noundef nonnull align 8 dereferenceable(56) %4) #17
  resume { ptr, i32 } %17

18:                                               ; preds = %.lr.ph
  %19 = extractvalue { ptr, i64 } %9, 0
  %.sroa.speculated = tail call i64 @llvm.umin.i64(i64 %10, i64 %storemerge12)
  %20 = load ptr, ptr %1, align 8
  %21 = getelementptr inbounds i8, ptr %20, i64 16
  %22 = load ptr, ptr %21, align 8
  tail call void %22(ptr noundef nonnull align 8 dereferenceable(8) %1, ptr noundef %19, i64 noundef %.sroa.speculated)
  %23 = load ptr, ptr %0, align 8
  %24 = getelementptr inbounds i8, ptr %23, i64 32
  %25 = load ptr, ptr %24, align 8
  tail call void %25(ptr noundef nonnull align 8 dereferenceable(8) %0, i64 noundef %.sroa.speculated)
  %26 = sub i64 %storemerge12, %.sroa.speculated
  %.not = icmp eq i64 %26, 0
  br i1 %.not, label %.loopexit, label %.lr.ph, !llvm.loop !4

.loopexit:                                        ; preds = %18, %3, %15
  ret void
}